target datalayout = "e-m:e-p270:32:32-p271:32:32-p272:64:64-i64:64-i128:128-f80:128-n8:16:32:64-S128"
target triple = "x86_64-pc-linux-gnu"

%struct.expert_field = type { i32, i32 }
%struct._packet_info = type { ptr, ptr, i32, i32, %struct.nstime_t, %struct.nstime_t, %struct.nstime_t, i8, ptr, ptr, ptr, ptr, %struct._address, %struct._address, %struct._address, %struct._address, %struct._address, %struct._address, i32, ptr, i8, [3 x i8], %struct.anon, i32, i32, i32, i32, ptr, i8, ptr, ptr, i16, i16, i32, i32, i16, i32, i32, ptr, ptr, ptr, i8, i8, i16, i16, i16, i32, i16, i16, ptr, ptr, ptr, ptr, ptr, i32, i32 }
%struct.nstime_t = type { i64, i32 }
%struct._address = type { i32, i32, ptr, ptr }
%struct.anon = type { i8, [3 x i8] }

@hf_mongo_message_length = internal global i32 0, align 4
@hf_mongo_request_id = internal global i32 0, align 4
@hf_mongo_response_to = internal global i32 0, align 4
@hf_mongo_op_code = internal global i32 0, align 4
@hf_mongo_unknown = internal global i32 0, align 4
@.str.240 = private unnamed_addr constant [8 x i8] c"Unknown\00", align 1
@ett_mongo = internal global i32 0, align 4
@ei_mongo_unknown = internal global %struct.expert_field zeroinitializer, align 4
@.str.256 = private unnamed_addr constant [6 x i8] c"MONGO\00", align 1
@proto_mongo = internal global i32 0, align 4
@.str.301 = private unnamed_addr constant [11 x i8] c"Response :\00", align 1
@.str.302 = private unnamed_addr constant [10 x i8] c"Request :\00", align 1
@.str.303 = private unnamed_addr constant [4 x i8] c" %s\00", align 1
@.str.304 = private unnamed_addr constant [14 x i8] c" (Compressed)\00", align 1

; Function Attrs: null_pointer_is_valid sspstrong uwtable
define internal i32 @dissect_mongo_pdu(ptr noundef %0, ptr noundef %1, ptr noundef %2, ptr noundef %3) #0 {
  %5 = alloca ptr, align 8
  %6 = alloca ptr, align 8
  %7 = alloca ptr, align 8
  %8 = alloca ptr, align 8
  %9 = alloca ptr, align 8
  %10 = alloca ptr, align 8
  %11 = alloca i32, align 4
  %12 = alloca i32, align 4
  %13 = alloca i32, align 4
  %14 = alloca i32, align 4
  store ptr %0, ptr %5, align 8
  store ptr %1, ptr %6, align 8
  store ptr %2, ptr %7, align 8
  store ptr %3, ptr %8, align 8
  call void @llvm.lifetime.start.p0(i64 8, ptr %9) #5
  call void @llvm.lifetime.start.p0(i64 8, ptr %10) #5
  call void @llvm.lifetime.start.p0(i64 4, ptr %11) #5
  store i32 0, ptr %11, align 4
  call void @llvm.lifetime.start.p0(i64 4, ptr %12) #5
  call void @llvm.lifetime.start.p0(i64 4, ptr %13) #5
  store i32 0, ptr %13, align 4
  call void @llvm.lifetime.start.p0(i64 4, ptr %14) #5
  %15 = load ptr, ptr %6, align 8
  %16 = getelementptr inbounds nuw %struct._packet_info, ptr %15, i32 0, i32 1
  %17 = load ptr, ptr %16, align 8
  call void @col_set_str(ptr noundef %17, i32 noundef 35, ptr noundef @.str.256)
  %18 = load ptr, ptr %7, align 8
  %19 = load i32, ptr @proto_mongo, align 4
  %20 = load ptr, ptr %5, align 8
  %21 = call ptr @proto_tree_add_item(ptr noundef %18, i32 noundef %19, ptr noundef %20, i32 noundef 0, i32 noundef -1, i32 noundef 0)
  store ptr %21, ptr %9, align 8
  %22 = load ptr, ptr %9, align 8
  %23 = load i32, ptr @ett_mongo, align 4
  %24 = call ptr @proto_item_add_subtree(ptr noundef %22, i32 noundef %23)
  store ptr %24, ptr %10, align 8
  %25 = load ptr, ptr %10, align 8
  %26 = load i32, ptr @hf_mongo_message_length, align 4
  %27 = load ptr, ptr %5, align 8
  %28 = load i32, ptr %11, align 4
  %29 = call ptr @proto_tree_add_item(ptr noundef %25, i32 noundef %26, ptr noundef %27, i32 noundef %28, i32 noundef 4, i32 noundef -2147483648)
  %30 = load i32, ptr %11, align 4
  %31 = add i32 %30, 4
  store i32 %31, ptr %11, align 4
  %32 = load ptr, ptr %10, align 8
  %33 = load i32, ptr @hf_mongo_request_id, align 4
  %34 = load ptr, ptr %5, align 8
  %35 = load i32, ptr %11, align 4
  %36 = call ptr @proto_tree_add_item(ptr noundef %32, i32 noundef %33, ptr noundef %34, i32 noundef %35, i32 noundef 4, i32 noundef -2147483648)
  %37 = load i32, ptr %11, align 4
  %38 = add i32 %37, 4
  store i32 %38, ptr %11, align 4
  %39 = load ptr, ptr %10, align 8
  %40 = load i32, ptr @hf_mongo_response_to, align 4
  %41 = load ptr, ptr %5, align 8
  %42 = load i32, ptr %11, align 4
  %43 = call ptr @proto_tree_add_item_ret_uint(ptr noundef %39, i32 noundef %40, ptr noundef %41, i32 noundef %42, i32 noundef 4, i32 noundef -2147483648, ptr noundef %14)
  %44 = load i32, ptr %11, align 4
  %45 = add i32 %44, 4
  store i32 %45, ptr %11, align 4
  %46 = load ptr, ptr %10, align 8
  %47 = load i32, ptr @hf_mongo_op_code, align 4
  %48 = load ptr, ptr %5, align 8
  %49 = load i32, ptr %11, align 4
  %50 = call ptr @proto_tree_add_item(ptr noundef %46, i32 noundef %47, ptr noundef %48, i32 noundef %49, i32 noundef 4, i32 noundef -2147483648)
  %51 = load ptr, ptr %5, align 8
  %52 = load i32, ptr %11, align 4
  %53 = call i32 @tvb_get_letohl(ptr noundef %51, i32 noundef %52)
  store i32 %53, ptr %12, align 4
  %54 = load i32, ptr %11, align 4
  %55 = add i32 %54, 4
  store i32 %55, ptr %11, align 4
  %56 = load ptr, ptr %5, align 8
  %57 = load ptr, ptr %6, align 8
  %58 = load i32, ptr %11, align 4
  %59 = load ptr, ptr %10, align 8
  %60 = load i32, ptr %12, align 4
  %61 = call i32 @dissect_opcode_types(ptr noundef %56, ptr noundef %57, i32 noundef %58, ptr noundef %59, i32 noundef %60, ptr noundef %13)
  store i32 %61, ptr %11, align 4
  %62 = load i32, ptr %12, align 4
  %63 = icmp eq i32 %62, 1
  br i1 %63, label %67, label %64

64:                                               ; preds = %4
  %65 = load i32, ptr %14, align 4
  %66 = icmp ne i32 %65, 0
  br i1 %66, label %67, label %71

67:                                               ; preds = %64, %4
  %68 = load ptr, ptr %6, align 8
  %69 = getelementptr inbounds nuw %struct._packet_info, ptr %68, i32 0, i32 1
  %70 = load ptr, ptr %69, align 8
  call void @col_set_str(ptr noundef %70, i32 noundef 25, ptr noundef @.str.301)
  br label %75

71:                                               ; preds = %64
  %72 = load ptr, ptr %6, align 8
  %73 = getelementptr inbounds nuw %struct._packet_info, ptr %72, i32 0, i32 1
  %74 = load ptr, ptr %73, align 8
  call void @col_set_str(ptr noundef %74, i32 noundef 25, ptr noundef @.str.302)
  br label %75

75:                                               ; preds = %71, %67
  %76 = load ptr, ptr %6, align 8
  %77 = getelementptr inbounds nuw %struct._packet_info, ptr %76, i32 0, i32 1
  %78 = load ptr, ptr %77, align 8
  %79 = load i32, ptr %13, align 4
  %80 = call ptr @val_to_str_const(i32 noundef %79, ptr noundef @opcode_vals, ptr noundef @.str.240)
  call void (ptr, i32, ptr, ...) @col_append_fstr(ptr noundef %78, i32 noundef 25, ptr noundef @.str.303, ptr noundef %80)
  %81 = load i32, ptr %12, align 4
  %82 = load i32, ptr %13, align 4
  %83 = icmp ne i32 %81, %82
  br i1 %83, label %84, label %88

84:                                               ; preds = %75
  %85 = load ptr, ptr %6, align 8
  %86 = getelementptr inbounds nuw %struct._packet_info, ptr %85, i32 0, i32 1
  %87 = load ptr, ptr %86, align 8
  call void @col_append_str(ptr noundef %87, i32 noundef 25, ptr noundef @.str.304)
  br label %88

88:                                               ; preds = %84, %75
  %89 = load i32, ptr %11, align 4
  %90 = load ptr, ptr %5, align 8
  %91 = call i32 @tvb_reported_length(ptr noundef %90)
  %92 = icmp ult i32 %89, %91
  br i1 %92, label %93, label %102

93:                                               ; preds = %88
  %94 = load ptr, ptr %10, align 8
  %95 = load i32, ptr @hf_mongo_unknown, align 4
  %96 = load ptr, ptr %5, align 8
  %97 = load i32, ptr %11, align 4
  %98 = call ptr @proto_tree_add_item(ptr noundef %94, i32 noundef %95, ptr noundef %96, i32 noundef %97, i32 noundef -1, i32 noundef 0)
  store ptr %98, ptr %9, align 8
  %99 = load ptr, ptr %6, align 8
  %100 = load ptr, ptr %9, align 8
  %101 = call ptr @expert_add_info(ptr noundef %99, ptr noundef %100, ptr noundef @ei_mongo_unknown)
  br label %102

102:                                              ; preds = %93, %88
  %103 = load ptr, ptr %5, align 8
  %104 = call i32 @tvb_captured_length(ptr noundef %103)
  call void @llvm.lifetime.end.p0(i64 4, ptr %14) #5
  call void @llvm.lifetime.end.p0(i64 4, ptr %13) #5
  call void @llvm.lifetime.end.p0(i64 4, ptr %12) #5
  call void @llvm.lifetime.end.p0(i64 4, ptr %11) #5
  call void @llvm.lifetime.end.p0(i64 8, ptr %10) #5
  call void @llvm.lifetime.end.p0(i64 8, ptr %9) #5
  ret i32 %104
}