; Function Attrs: null_pointer_is_valid sspstrong uwtable
define internal i32 @dissect_mongo_pdu(ptr noundef %0, ptr noundef %1, ptr noundef %2, ptr readnone captures(none) %3) #0 {
  %5 = alloca i32, align 4
  %6 = alloca i32, align 4
  call void @llvm.lifetime.start.p0(i64 4, ptr nonnull %5) #5
  store i32 0, ptr %5, align 4
  call void @llvm.lifetime.start.p0(i64 4, ptr nonnull %6) #5
  %7 = getelementptr inbounds nuw i8, ptr %1, i64 8
  %8 = load ptr, ptr %7, align 8
  tail call void @col_set_str(ptr noundef %8, i32 noundef 35, ptr noundef nonnull @.str.256)
  %9 = load i32, ptr @proto_mongo, align 4
  %10 = tail call ptr @proto_tree_add_item(ptr noundef %2, i32 noundef %9, ptr noundef %0, i32 noundef 0, i32 noundef -1, i32 noundef 0)
  %11 = load i32, ptr @ett_mongo, align 4
  %12 = tail call ptr @proto_item_add_subtree(ptr noundef %10, i32 noundef %11)
  %13 = load i32, ptr @hf_mongo_message_length, align 4
  %14 = tail call ptr @proto_tree_add_item(ptr noundef %12, i32 noundef %13, ptr noundef %0, i32 noundef 0, i32 noundef 4, i32 noundef -2147483648)
  %15 = load i32, ptr @hf_mongo_request_id, align 4
  %16 = tail call ptr @proto_tree_add_item(ptr noundef %12, i32 noundef %15, ptr noundef %0, i32 noundef 4, i32 noundef 4, i32 noundef -2147483648)
  %17 = load i32, ptr @hf_mongo_response_to, align 4
  %18 = call ptr @proto_tree_add_item_ret_uint(ptr noundef %12, i32 noundef %17, ptr noundef %0, i32 noundef 8, i32 noundef 4, i32 noundef -2147483648, ptr noundef nonnull %6)
  %19 = load i32, ptr @hf_mongo_op_code, align 4
  %20 = call ptr @proto_tree_add_item(ptr noundef %12, i32 noundef %19, ptr noundef %0, i32 noundef 12, i32 noundef 4, i32 noundef -2147483648)
  %21 = call i32 @tvb_get_letohl(ptr noundef %0, i32 noundef 12)
  %22 = call fastcc i32 @dissect_opcode_types(ptr noundef %0, ptr noundef %1, i32 noundef 16, ptr noundef %12, i32 noundef %21, ptr noundef nonnull %5)
  %23 = icmp eq i32 %21, 1
  %24 = load i32, ptr %6, align 4
  %25 = icmp ne i32 %24, 0
  %or.cond = select i1 %23, i1 true, i1 %25
  %26 = load ptr, ptr %7, align 8
  %.str.301..str.302 = select i1 %or.cond, ptr @.str.301, ptr @.str.302
  call void @col_set_str(ptr noundef %26, i32 noundef 25, ptr noundef nonnull %.str.301..str.302)
  %27 = load ptr, ptr %7, align 8
  %28 = load i32, ptr %5, align 4
  %29 = call ptr @val_to_str_const(i32 noundef %28, ptr noundef nonnull @opcode_vals, ptr noundef nonnull @.str.240)
  call void (ptr, i32, ptr, ...) @col_append_fstr(ptr noundef %27, i32 noundef 25, ptr noundef nonnull @.str.303, ptr noundef %29)
  %30 = load i32, ptr %5, align 4
  %.not = icmp eq i32 %21, %30
  br i1 %.not, label %33, label %31

31:                                               ; preds = %4
  %32 = load ptr, ptr %7, align 8
  call void @col_append_str(ptr noundef %32, i32 noundef 25, ptr noundef nonnull @.str.304)
  br label %33

33:                                               ; preds = %31, %4
  %34 = call i32 @tvb_reported_length(ptr noundef %0)
  %35 = icmp ult i32 %22, %34
  br i1 %35, label %36, label %40

36:                                               ; preds = %33
  %37 = load i32, ptr @hf_mongo_unknown, align 4
  %38 = call ptr @proto_tree_add_item(ptr noundef %12, i32 noundef %37, ptr noundef %0, i32 noundef %22, i32 noundef -1, i32 noundef 0)
  %39 = call ptr @expert_add_info(ptr noundef %1, ptr noundef %38, ptr noundef nonnull @ei_mongo_unknown)
  br label %40

40:                                               ; preds = %36, %33
  %41 = call i32 @tvb_captured_length(ptr noundef %0)
  call void @llvm.lifetime.end.p0(i64 4, ptr nonnull %6) #5
  call void @llvm.lifetime.end.p0(i64 4, ptr nonnull %5) #5
  ret i32 %41
}